target datalayout = "e-m:e-p270:32:32-p271:32:32-p272:64:64-i64:64-i128:128-f80:128-n8:16:32:64-S128"
target triple = "x86_64-pc-linux-gnu"

%struct.tng_trajectory = type { ptr, ptr, i64, ptr, ptr, ptr, ptr, ptr, ptr, i8, i8, ptr, ptr, ptr, ptr, ptr, ptr, ptr, ptr, ptr, i64, i64, i8, i64, i64, i64, double, i64, ptr, ptr, i64, i64, i64, i64, i64, %struct.tng_trajectory_frame_set, i64, i64, i64, i32, ptr, i32, ptr, ptr, ptr, double }
%struct.tng_trajectory_frame_set = type { i64, ptr, i64, i64, i64, i64, ptr, i64, i64, i64, i64, i64, i64, i64, double, i32, ptr, i32, ptr }

@stderr = external global ptr, align 8
@.str = private unnamed_addr constant [45 x i8] c"TNG library: Cannot allocate memory. %s: %d\0A\00", align 1
@.str.1 = private unnamed_addr constant [130 x i8] c"generated/home/dtcxzyw/WorkSpace/Projects/compilers/llvm-opt-benchmark/bench/gromacs/gromacs/src/external/tng_io/src/lib/tng_io.c\00", align 1
@.str.12 = private unnamed_addr constant [4 x i8] c"rb+\00", align 1
@.str.13 = private unnamed_addr constant [42 x i8] c"TNG library: Cannot open file %s. %s: %d\0A\00", align 1

; Function Attrs: inlinehint nounwind uwtable
define internal i64 @tng_min_size(i64 noundef %0, i64 noundef %1) #4 {
  %3 = alloca i64, align 8
  %4 = alloca i64, align 8
  store i64 %0, ptr %3, align 8, !tbaa !26
  store i64 %1, ptr %4, align 8, !tbaa !26
  %5 = load i64, ptr %3, align 8, !tbaa !26
  %6 = load i64, ptr %4, align 8, !tbaa !26
  %7 = icmp ult i64 %5, %6
  br i1 %7, label %8, label %10

8:                                                ; preds = %2
  %9 = load i64, ptr %3, align 8, !tbaa !26
  br label %12

10:                                               ; preds = %2
  %11 = load i64, ptr %4, align 8, !tbaa !26
  br label %12

12:                                               ; preds = %10, %8
  %13 = phi i64 [ %9, %8 ], [ %11, %10 ]
  ret i64 %13
}

; Function Attrs: nounwind uwtable
define i32 @tng_output_append_file_set(ptr noundef %0, ptr noundef %1) #0 {
  %3 = alloca i32, align 4
  %4 = alloca ptr, align 8
  %5 = alloca ptr, align 8
  %6 = alloca i32, align 4
  %7 = alloca ptr, align 8
  %8 = alloca i32, align 4
  store ptr %0, ptr %4, align 8, !tbaa !3
  store ptr %1, ptr %5, align 8, !tbaa !19
  call void @llvm.lifetime.start.p0(i64 4, ptr %6) #11
  call void @llvm.lifetime.start.p0(i64 8, ptr %7) #11
  %9 = load ptr, ptr %4, align 8, !tbaa !3
  %10 = getelementptr inbounds nuw %struct.tng_trajectory, ptr %9, i32 0, i32 3
  %11 = load ptr, ptr %10, align 8, !tbaa !138
  %12 = icmp ne ptr %11, null
  br i1 %12, label %13, label %21

13:                                               ; preds = %2
  %14 = load ptr, ptr %4, align 8, !tbaa !3
  %15 = getelementptr inbounds nuw %struct.tng_trajectory, ptr %14, i32 0, i32 3
  %16 = load ptr, ptr %15, align 8, !tbaa !138
  %17 = load ptr, ptr %5, align 8, !tbaa !19
  %18 = call i32 @strcmp(ptr noundef %16, ptr noundef %17) #12
  %19 = icmp eq i32 %18, 0
  br i1 %19, label %20, label %21

20:                                               ; preds = %13
  store i32 0, ptr %3, align 4
  store i32 1, ptr %8, align 4
  br label %86

21:                                               ; preds = %13, %2
  %22 = load ptr, ptr %4, align 8, !tbaa !3
  %23 = getelementptr inbounds nuw %struct.tng_trajectory, ptr %22, i32 0, i32 4
  %24 = load ptr, ptr %23, align 8, !tbaa !139
  %25 = icmp ne ptr %24, null
  br i1 %25, label %26, label %31

26:                                               ; preds = %21
  %27 = load ptr, ptr %4, align 8, !tbaa !3
  %28 = getelementptr inbounds nuw %struct.tng_trajectory, ptr %27, i32 0, i32 4
  %29 = load ptr, ptr %28, align 8, !tbaa !139
  %30 = call i32 @fclose(ptr noundef %29)
  br label %31

31:                                               ; preds = %26, %21
  %32 = load ptr, ptr %5, align 8, !tbaa !19
  %33 = call i64 @strlen(ptr noundef %32) #12
  %34 = add i64 %33, 1
  %35 = call i64 @tng_min_size(i64 noundef %34, i64 noundef 1024)
  %36 = trunc i64 %35 to i32
  store i32 %36, ptr %6, align 4, !tbaa !20
  %37 = load ptr, ptr %4, align 8, !tbaa !3
  %38 = getelementptr inbounds nuw %struct.tng_trajectory, ptr %37, i32 0, i32 3
  %39 = load ptr, ptr %38, align 8, !tbaa !138
  %40 = load i32, ptr %6, align 4, !tbaa !20
  %41 = sext i32 %40 to i64
  %42 = call ptr @realloc(ptr noundef %39, i64 noundef %41) #14
  store ptr %42, ptr %7, align 8, !tbaa !19
  %43 = load ptr, ptr %7, align 8, !tbaa !19
  %44 = icmp ne ptr %43, null
  br i1 %44, label %53, label %45

45:                                               ; preds = %31
  %46 = load ptr, ptr @stderr, align 8, !tbaa !24
  %47 = call i32 (ptr, ptr, ...) @fprintf(ptr noundef %46, ptr noundef @.str, ptr noundef @.str.1, i32 noundef 8975) #11
  %48 = load ptr, ptr %4, align 8, !tbaa !3
  %49 = getelementptr inbounds nuw %struct.tng_trajectory, ptr %48, i32 0, i32 3
  %50 = load ptr, ptr %49, align 8, !tbaa !138
  call void @free(ptr noundef %50) #11
  %51 = load ptr, ptr %4, align 8, !tbaa !3
  %52 = getelementptr inbounds nuw %struct.tng_trajectory, ptr %51, i32 0, i32 3
  store ptr null, ptr %52, align 8, !tbaa !138
  store i32 2, ptr %3, align 4
  store i32 1, ptr %8, align 4
  br label %86

53:                                               ; preds = %31
  %54 = load ptr, ptr %7, align 8, !tbaa !19
  %55 = load ptr, ptr %4, align 8, !tbaa !3
  %56 = getelementptr inbounds nuw %struct.tng_trajectory, ptr %55, i32 0, i32 3
  store ptr %54, ptr %56, align 8, !tbaa !138
  %57 = load ptr, ptr %4, align 8, !tbaa !3
  %58 = getelementptr inbounds nuw %struct.tng_trajectory, ptr %57, i32 0, i32 3
  %59 = load ptr, ptr %58, align 8, !tbaa !138
  %60 = load ptr, ptr %5, align 8, !tbaa !19
  %61 = load i32, ptr %6, align 4, !tbaa !20
  %62 = sext i32 %61 to i64
  %63 = call ptr @strncpy(ptr noundef %59, ptr noundef %60, i64 noundef %62) #11
  %64 = load ptr, ptr %4, align 8, !tbaa !3
  %65 = getelementptr inbounds nuw %struct.tng_trajectory, ptr %64, i32 0, i32 3
  %66 = load ptr, ptr %65, align 8, !tbaa !138
  %67 = call noalias ptr @fopen64(ptr noundef %66, ptr noundef @.str.12)
  %68 = load ptr, ptr %4, align 8, !tbaa !3
  %69 = getelementptr inbounds nuw %struct.tng_trajectory, ptr %68, i32 0, i32 4
  store ptr %67, ptr %69, align 8, !tbaa !139
  %70 = load ptr, ptr %4, align 8, !tbaa !3
  %71 = getelementptr inbounds nuw %struct.tng_trajectory, ptr %70, i32 0, i32 4
  %72 = load ptr, ptr %71, align 8, !tbaa !139
  %73 = icmp ne ptr %72, null
  br i1 %73, label %80, label %74

74:                                               ; preds = %53
  %75 = load ptr, ptr @stderr, align 8, !tbaa !24
  %76 = load ptr, ptr %4, align 8, !tbaa !3
  %77 = getelementptr inbounds nuw %struct.tng_trajectory, ptr %76, i32 0, i32 3
  %78 = load ptr, ptr %77, align 8, !tbaa !138
  %79 = call i32 (ptr, ptr, ...) @fprintf(ptr noundef %75, ptr noundef @.str.13, ptr noundef %78, ptr noundef @.str.1, i32 noundef 8988) #11
  store i32 2, ptr %3, align 4
  store i32 1, ptr %8, align 4
  br label %86

80:                                               ; preds = %53
  %81 = load ptr, ptr %4, align 8, !tbaa !3
  %82 = getelementptr inbounds nuw %struct.tng_trajectory, ptr %81, i32 0, i32 4
  %83 = load ptr, ptr %82, align 8, !tbaa !139
  %84 = load ptr, ptr %4, align 8, !tbaa !3
  %85 = getelementptr inbounds nuw %struct.tng_trajectory, ptr %84, i32 0, i32 1
  store ptr %83, ptr %85, align 8, !tbaa !136
  store i32 0, ptr %3, align 4
  store i32 1, ptr %8, align 4
  br label %86

86:                                               ; preds = %80, %74, %45, %20
  call void @llvm.lifetime.end.p0(i64 8, ptr %7) #11
  call void @llvm.lifetime.end.p0(i64 4, ptr %6) #11
  %87 = load i32, ptr %3, align 4
  ret i32 %87
}