; Function Attrs: nounwind uwtable
define range(i32 0, 3) i32 @tng_output_append_file_set(ptr noundef captures(none) %0, ptr noundef readonly captures(none) %1) local_unnamed_addr #4 {
  %3 = getelementptr inbounds nuw i8, ptr %0, i64 24
  %4 = load ptr, ptr %3, align 8, !tbaa !140
  %.not = icmp eq ptr %4, null
  br i1 %.not, label %8, label %5

5:                                                ; preds = %2
  %6 = tail call i32 @strcmp(ptr noundef nonnull dereferenceable(1) %4, ptr noundef nonnull dereferenceable(1) %1) #27
  %7 = icmp eq i32 %6, 0
  br i1 %7, label %32, label %8

8:                                                ; preds = %5, %2
  %9 = getelementptr inbounds nuw i8, ptr %0, i64 32
  %10 = load ptr, ptr %9, align 8, !tbaa !138
  %.not26 = icmp eq ptr %10, null
  br i1 %.not26, label %13, label %11

11:                                               ; preds = %8
  %12 = tail call i32 @fclose(ptr noundef nonnull %10)
  %.pre = load ptr, ptr %3, align 8, !tbaa !140
  br label %13

13:                                               ; preds = %11, %8
  %14 = phi ptr [ %.pre, %11 ], [ %4, %8 ]
  %15 = tail call i64 @strlen(ptr noundef nonnull dereferenceable(1) %1) #27
  %16 = add i64 %15, 1
  %17 = tail call noundef range(i64 0, 1025) i64 @llvm.umin.i64(i64 %16, i64 1024)
  %18 = tail call ptr @realloc(ptr noundef %14, i64 noundef %17) #30
  %.not27 = icmp eq ptr %18, null
  br i1 %.not27, label %19, label %23

19:                                               ; preds = %13
  %20 = load ptr, ptr @stderr, align 8, !tbaa !14
  %21 = tail call i32 (ptr, ptr, ...) @fprintf(ptr noundef %20, ptr noundef nonnull @.str, ptr noundef nonnull @.str.1, i32 noundef 8975) #29
  %22 = load ptr, ptr %3, align 8, !tbaa !140
  tail call void @free(ptr noundef %22) #26
  store ptr null, ptr %3, align 8, !tbaa !140
  br label %32

23:                                               ; preds = %13
  store ptr %18, ptr %3, align 8, !tbaa !140
  %24 = tail call ptr @strncpy(ptr noundef nonnull %18, ptr noundef nonnull %1, i64 noundef %17) #26
  %25 = tail call noalias ptr @fopen64(ptr noundef nonnull %18, ptr noundef nonnull @.str.12)
  store ptr %25, ptr %9, align 8, !tbaa !138
  %.not28 = icmp eq ptr %25, null
  br i1 %.not28, label %26, label %30

26:                                               ; preds = %23
  %27 = load ptr, ptr @stderr, align 8, !tbaa !14
  %28 = load ptr, ptr %3, align 8, !tbaa !140
  %29 = tail call i32 (ptr, ptr, ...) @fprintf(ptr noundef %27, ptr noundef nonnull @.str.13, ptr noundef %28, ptr noundef nonnull @.str.1, i32 noundef 8988) #29
  br label %32

30:                                               ; preds = %23
  %31 = getelementptr inbounds nuw i8, ptr %0, i64 8
  store ptr %25, ptr %31, align 8, !tbaa !137
  br label %32

32:                                               ; preds = %5, %30, %26, %19
  %.0 = phi i32 [ 0, %30 ], [ 2, %26 ], [ 2, %19 ], [ 0, %5 ]
  ret i32 %.0
}